target datalayout = "e-m:e-p270:32:32-p271:32:32-p272:64:64-i64:64-i128:128-f80:128-n8:16:32:64-S128"
target triple = "x86_64-pc-linux-gnu"

%struct._packet_info = type { ptr, ptr, i32, i32, %struct.nstime_t, %struct.nstime_t, %struct.nstime_t, i8, ptr, ptr, ptr, ptr, %struct._address, %struct._address, %struct._address, %struct._address, %struct._address, %struct._address, i32, ptr, i8, [3 x i8], %struct.anon, i32, i32, i32, i32, ptr, i8, ptr, ptr, i16, i16, i32, i32, i16, i32, i32, ptr, ptr, ptr, i8, i8, i16, i16, i16, i32, i16, i16, ptr, ptr, ptr, ptr, ptr, i32, i32 }
%struct.nstime_t = type { i64, i32 }
%struct._address = type { i32, i32, ptr, ptr }
%struct.anon = type { i8, [3 x i8] }
%struct.nano_session_state = type { i32, i32 }

@hf_nano_block_hash_previous = internal global i32 0, align 4
@hf_nano_block_hash_source = internal global i32 0, align 4
@hf_nano_block_signature = internal global i32 0, align 4
@hf_nano_block_work = internal global i32 0, align 4
@hf_nano_block_destination_account = internal global i32 0, align 4
@hf_nano_block_balance = internal global i32 0, align 4
@hf_nano_block_account = internal global i32 0, align 4
@hf_nano_block_representative_account = internal global i32 0, align 4
@hf_nano_bulk_pull_block_type = internal global i32 0, align 4
@hf_nano_frontier_account = internal global i32 0, align 4
@hf_nano_frontier_head_hash = internal global i32 0, align 4
@ett_nano_block = internal global i32 0, align 4
@ett_nano_frontier = internal global i32 0, align 4
@.str.120 = private unnamed_addr constant [14 x i8] c"Receive Block\00", align 1
@.str.121 = private unnamed_addr constant [11 x i8] c"Send Block\00", align 1
@.str.122 = private unnamed_addr constant [11 x i8] c"Open Block\00", align 1
@.str.123 = private unnamed_addr constant [13 x i8] c"Change Block\00", align 1
@.str.132 = private unnamed_addr constant [20 x i8] c"Bulk Pull Response \00", align 1
@.str.133 = private unnamed_addr constant [27 x i8] c"Bulk Pull Blocks Response \00", align 1
@.str.134 = private unnamed_addr constant [19 x i8] c"Frontier Response \00", align 1
@.str.135 = private unnamed_addr constant [9 x i8] c"Frontier\00", align 1

; Function Attrs: null_pointer_is_valid sspstrong uwtable
define internal i32 @dissect_nano_frontier(ptr noundef %0, ptr noundef %1, i32 noundef %2) #0 {
  %4 = alloca ptr, align 8
  %5 = alloca ptr, align 8
  %6 = alloca i32, align 4
  %7 = alloca ptr, align 8
  store ptr %0, ptr %4, align 8
  store ptr %1, ptr %5, align 8
  store i32 %2, ptr %6, align 4
  call void @llvm.lifetime.start.p0(i64 8, ptr %7) #8
  %8 = load ptr, ptr %5, align 8
  %9 = load ptr, ptr %4, align 8
  %10 = load i32, ptr %6, align 4
  %11 = load i32, ptr @ett_nano_frontier, align 4
  %12 = call ptr @proto_tree_add_subtree(ptr noundef %8, ptr noundef %9, i32 noundef %10, i32 noundef 64, i32 noundef %11, ptr noundef null, ptr noundef @.str.135)
  store ptr %12, ptr %7, align 8
  %13 = load ptr, ptr %7, align 8
  %14 = load i32, ptr @hf_nano_frontier_account, align 4
  %15 = load ptr, ptr %4, align 8
  %16 = load i32, ptr %6, align 4
  %17 = call ptr @proto_tree_add_item(ptr noundef %13, i32 noundef %14, ptr noundef %15, i32 noundef %16, i32 noundef 32, i32 noundef 0)
  %18 = load i32, ptr %6, align 4
  %19 = add i32 %18, 32
  store i32 %19, ptr %6, align 4
  %20 = load ptr, ptr %7, align 8
  %21 = load i32, ptr @hf_nano_frontier_head_hash, align 4
  %22 = load ptr, ptr %4, align 8
  %23 = load i32, ptr %6, align 4
  %24 = call ptr @proto_tree_add_item(ptr noundef %20, i32 noundef %21, ptr noundef %22, i32 noundef %23, i32 noundef 32, i32 noundef 0)
  %25 = load i32, ptr %6, align 4
  %26 = add i32 %25, 32
  store i32 %26, ptr %6, align 4
  %27 = load i32, ptr %6, align 4
  call void @llvm.lifetime.end.p0(i64 8, ptr %7) #8
  ret i32 %27
}

; Function Attrs: null_pointer_is_valid sspstrong uwtable
define internal i32 @dissect_nano_change_block(ptr noundef %0, ptr noundef %1, i32 noundef %2) #0 {
  %4 = alloca ptr, align 8
  %5 = alloca ptr, align 8
  %6 = alloca i32, align 4
  %7 = alloca ptr, align 8
  store ptr %0, ptr %4, align 8
  store ptr %1, ptr %5, align 8
  store i32 %2, ptr %6, align 4
  call void @llvm.lifetime.start.p0(i64 8, ptr %7) #8
  %8 = load ptr, ptr %5, align 8
  %9 = load ptr, ptr %4, align 8
  %10 = load i32, ptr %6, align 4
  %11 = load i32, ptr @ett_nano_block, align 4
  %12 = call ptr @proto_tree_add_subtree(ptr noundef %8, ptr noundef %9, i32 noundef %10, i32 noundef 136, i32 noundef %11, ptr noundef null, ptr noundef @.str.123)
  store ptr %12, ptr %7, align 8
  %13 = load ptr, ptr %7, align 8
  %14 = load i32, ptr @hf_nano_block_hash_previous, align 4
  %15 = load ptr, ptr %4, align 8
  %16 = load i32, ptr %6, align 4
  %17 = call ptr @proto_tree_add_item(ptr noundef %13, i32 noundef %14, ptr noundef %15, i32 noundef %16, i32 noundef 32, i32 noundef 0)
  %18 = load i32, ptr %6, align 4
  %19 = add i32 %18, 32
  store i32 %19, ptr %6, align 4
  %20 = load ptr, ptr %7, align 8
  %21 = load i32, ptr @hf_nano_block_representative_account, align 4
  %22 = load ptr, ptr %4, align 8
  %23 = load i32, ptr %6, align 4
  %24 = call ptr @proto_tree_add_item(ptr noundef %20, i32 noundef %21, ptr noundef %22, i32 noundef %23, i32 noundef 32, i32 noundef 0)
  %25 = load i32, ptr %6, align 4
  %26 = add i32 %25, 32
  store i32 %26, ptr %6, align 4
  %27 = load ptr, ptr %7, align 8
  %28 = load i32, ptr @hf_nano_block_signature, align 4
  %29 = load ptr, ptr %4, align 8
  %30 = load i32, ptr %6, align 4
  %31 = call ptr @proto_tree_add_item(ptr noundef %27, i32 noundef %28, ptr noundef %29, i32 noundef %30, i32 noundef 64, i32 noundef 0)
  %32 = load i32, ptr %6, align 4
  %33 = add i32 %32, 64
  store i32 %33, ptr %6, align 4
  %34 = load ptr, ptr %7, align 8
  %35 = load i32, ptr @hf_nano_block_work, align 4
  %36 = load ptr, ptr %4, align 8
  %37 = load i32, ptr %6, align 4
  %38 = call ptr @proto_tree_add_item(ptr noundef %34, i32 noundef %35, ptr noundef %36, i32 noundef %37, i32 noundef 8, i32 noundef 0)
  %39 = load i32, ptr %6, align 4
  %40 = add i32 %39, 8
  store i32 %40, ptr %6, align 4
  %41 = load i32, ptr %6, align 4
  call void @llvm.lifetime.end.p0(i64 8, ptr %7) #8
  ret i32 %41
}

; Function Attrs: null_pointer_is_valid sspstrong uwtable
define internal i32 @dissect_nano_open_block(ptr noundef %0, ptr noundef %1, i32 noundef %2) #0 {
  %4 = alloca ptr, align 8
  %5 = alloca ptr, align 8
  %6 = alloca i32, align 4
  %7 = alloca ptr, align 8
  store ptr %0, ptr %4, align 8
  store ptr %1, ptr %5, align 8
  store i32 %2, ptr %6, align 4
  call void @llvm.lifetime.start.p0(i64 8, ptr %7) #8
  %8 = load ptr, ptr %5, align 8
  %9 = load ptr, ptr %4, align 8
  %10 = load i32, ptr %6, align 4
  %11 = load i32, ptr @ett_nano_block, align 4
  %12 = call ptr @proto_tree_add_subtree(ptr noundef %8, ptr noundef %9, i32 noundef %10, i32 noundef 168, i32 noundef %11, ptr noundef null, ptr noundef @.str.122)
  store ptr %12, ptr %7, align 8
  %13 = load ptr, ptr %7, align 8
  %14 = load i32, ptr @hf_nano_block_hash_source, align 4
  %15 = load ptr, ptr %4, align 8
  %16 = load i32, ptr %6, align 4
  %17 = call ptr @proto_tree_add_item(ptr noundef %13, i32 noundef %14, ptr noundef %15, i32 noundef %16, i32 noundef 32, i32 noundef 0)
  %18 = load i32, ptr %6, align 4
  %19 = add i32 %18, 32
  store i32 %19, ptr %6, align 4
  %20 = load ptr, ptr %7, align 8
  %21 = load i32, ptr @hf_nano_block_representative_account, align 4
  %22 = load ptr, ptr %4, align 8
  %23 = load i32, ptr %6, align 4
  %24 = call ptr @proto_tree_add_item(ptr noundef %20, i32 noundef %21, ptr noundef %22, i32 noundef %23, i32 noundef 32, i32 noundef 0)
  %25 = load i32, ptr %6, align 4
  %26 = add i32 %25, 32
  store i32 %26, ptr %6, align 4
  %27 = load ptr, ptr %7, align 8
  %28 = load i32, ptr @hf_nano_block_account, align 4
  %29 = load ptr, ptr %4, align 8
  %30 = load i32, ptr %6, align 4
  %31 = call ptr @proto_tree_add_item(ptr noundef %27, i32 noundef %28, ptr noundef %29, i32 noundef %30, i32 noundef 32, i32 noundef 0)
  %32 = load i32, ptr %6, align 4
  %33 = add i32 %32, 32
  store i32 %33, ptr %6, align 4
  %34 = load ptr, ptr %7, align 8
  %35 = load i32, ptr @hf_nano_block_signature, align 4
  %36 = load ptr, ptr %4, align 8
  %37 = load i32, ptr %6, align 4
  %38 = call ptr @proto_tree_add_item(ptr noundef %34, i32 noundef %35, ptr noundef %36, i32 noundef %37, i32 noundef 64, i32 noundef 0)
  %39 = load i32, ptr %6, align 4
  %40 = add i32 %39, 64
  store i32 %40, ptr %6, align 4
  %41 = load ptr, ptr %7, align 8
  %42 = load i32, ptr @hf_nano_block_work, align 4
  %43 = load ptr, ptr %4, align 8
  %44 = load i32, ptr %6, align 4
  %45 = call ptr @proto_tree_add_item(ptr noundef %41, i32 noundef %42, ptr noundef %43, i32 noundef %44, i32 noundef 8, i32 noundef 0)
  %46 = load i32, ptr %6, align 4
  %47 = add i32 %46, 8
  store i32 %47, ptr %6, align 4
  %48 = load i32, ptr %6, align 4
  call void @llvm.lifetime.end.p0(i64 8, ptr %7) #8
  ret i32 %48
}

; Function Attrs: null_pointer_is_valid sspstrong uwtable
define internal i32 @dissect_nano_receive_block(ptr noundef %0, ptr noundef %1, i32 noundef %2) #0 {
  %4 = alloca ptr, align 8
  %5 = alloca ptr, align 8
  %6 = alloca i32, align 4
  %7 = alloca ptr, align 8
  store ptr %0, ptr %4, align 8
  store ptr %1, ptr %5, align 8
  store i32 %2, ptr %6, align 4
  call void @llvm.lifetime.start.p0(i64 8, ptr %7) #8
  %8 = load ptr, ptr %5, align 8
  %9 = load ptr, ptr %4, align 8
  %10 = load i32, ptr %6, align 4
  %11 = load i32, ptr @ett_nano_block, align 4
  %12 = call ptr @proto_tree_add_subtree(ptr noundef %8, ptr noundef %9, i32 noundef %10, i32 noundef 136, i32 noundef %11, ptr noundef null, ptr noundef @.str.120)
  store ptr %12, ptr %7, align 8
  %13 = load ptr, ptr %7, align 8
  %14 = load i32, ptr @hf_nano_block_hash_previous, align 4
  %15 = load ptr, ptr %4, align 8
  %16 = load i32, ptr %6, align 4
  %17 = call ptr @proto_tree_add_item(ptr noundef %13, i32 noundef %14, ptr noundef %15, i32 noundef %16, i32 noundef 32, i32 noundef 0)
  %18 = load i32, ptr %6, align 4
  %19 = add i32 %18, 32
  store i32 %19, ptr %6, align 4
  %20 = load ptr, ptr %7, align 8
  %21 = load i32, ptr @hf_nano_block_hash_source, align 4
  %22 = load ptr, ptr %4, align 8
  %23 = load i32, ptr %6, align 4
  %24 = call ptr @proto_tree_add_item(ptr noundef %20, i32 noundef %21, ptr noundef %22, i32 noundef %23, i32 noundef 32, i32 noundef 0)
  %25 = load i32, ptr %6, align 4
  %26 = add i32 %25, 32
  store i32 %26, ptr %6, align 4
  %27 = load ptr, ptr %7, align 8
  %28 = load i32, ptr @hf_nano_block_signature, align 4
  %29 = load ptr, ptr %4, align 8
  %30 = load i32, ptr %6, align 4
  %31 = call ptr @proto_tree_add_item(ptr noundef %27, i32 noundef %28, ptr noundef %29, i32 noundef %30, i32 noundef 64, i32 noundef 0)
  %32 = load i32, ptr %6, align 4
  %33 = add i32 %32, 64
  store i32 %33, ptr %6, align 4
  %34 = load ptr, ptr %7, align 8
  %35 = load i32, ptr @hf_nano_block_work, align 4
  %36 = load ptr, ptr %4, align 8
  %37 = load i32, ptr %6, align 4
  %38 = call ptr @proto_tree_add_item(ptr noundef %34, i32 noundef %35, ptr noundef %36, i32 noundef %37, i32 noundef 8, i32 noundef 0)
  %39 = load i32, ptr %6, align 4
  %40 = add i32 %39, 8
  store i32 %40, ptr %6, align 4
  %41 = load i32, ptr %6, align 4
  call void @llvm.lifetime.end.p0(i64 8, ptr %7) #8
  ret i32 %41
}

; Function Attrs: null_pointer_is_valid sspstrong uwtable
define internal i32 @dissect_nano_send_block(ptr noundef %0, ptr noundef %1, i32 noundef %2) #0 {
  %4 = alloca ptr, align 8
  %5 = alloca ptr, align 8
  %6 = alloca i32, align 4
  %7 = alloca ptr, align 8
  store ptr %0, ptr %4, align 8
  store ptr %1, ptr %5, align 8
  store i32 %2, ptr %6, align 4
  call void @llvm.lifetime.start.p0(i64 8, ptr %7) #8
  %8 = load ptr, ptr %5, align 8
  %9 = load ptr, ptr %4, align 8
  %10 = load i32, ptr %6, align 4
  %11 = load i32, ptr @ett_nano_block, align 4
  %12 = call ptr @proto_tree_add_subtree(ptr noundef %8, ptr noundef %9, i32 noundef %10, i32 noundef 152, i32 noundef %11, ptr noundef null, ptr noundef @.str.121)
  store ptr %12, ptr %7, align 8
  %13 = load ptr, ptr %7, align 8
  %14 = load i32, ptr @hf_nano_block_hash_previous, align 4
  %15 = load ptr, ptr %4, align 8
  %16 = load i32, ptr %6, align 4
  %17 = call ptr @proto_tree_add_item(ptr noundef %13, i32 noundef %14, ptr noundef %15, i32 noundef %16, i32 noundef 32, i32 noundef 0)
  %18 = load i32, ptr %6, align 4
  %19 = add i32 %18, 32
  store i32 %19, ptr %6, align 4
  %20 = load ptr, ptr %7, align 8
  %21 = load i32, ptr @hf_nano_block_destination_account, align 4
  %22 = load ptr, ptr %4, align 8
  %23 = load i32, ptr %6, align 4
  %24 = call ptr @proto_tree_add_item(ptr noundef %20, i32 noundef %21, ptr noundef %22, i32 noundef %23, i32 noundef 32, i32 noundef 0)
  %25 = load i32, ptr %6, align 4
  %26 = add i32 %25, 32
  store i32 %26, ptr %6, align 4
  %27 = load ptr, ptr %7, align 8
  %28 = load i32, ptr @hf_nano_block_balance, align 4
  %29 = load ptr, ptr %4, align 8
  %30 = load i32, ptr %6, align 4
  %31 = call ptr @proto_tree_add_item(ptr noundef %27, i32 noundef %28, ptr noundef %29, i32 noundef %30, i32 noundef 16, i32 noundef 0)
  %32 = load i32, ptr %6, align 4
  %33 = add i32 %32, 16
  store i32 %33, ptr %6, align 4
  %34 = load ptr, ptr %7, align 8
  %35 = load i32, ptr @hf_nano_block_signature, align 4
  %36 = load ptr, ptr %4, align 8
  %37 = load i32, ptr %6, align 4
  %38 = call ptr @proto_tree_add_item(ptr noundef %34, i32 noundef %35, ptr noundef %36, i32 noundef %37, i32 noundef 64, i32 noundef 0)
  %39 = load i32, ptr %6, align 4
  %40 = add i32 %39, 64
  store i32 %40, ptr %6, align 4
  %41 = load ptr, ptr %7, align 8
  %42 = load i32, ptr @hf_nano_block_work, align 4
  %43 = load ptr, ptr %4, align 8
  %44 = load i32, ptr %6, align 4
  %45 = call ptr @proto_tree_add_item(ptr noundef %41, i32 noundef %42, ptr noundef %43, i32 noundef %44, i32 noundef 8, i32 noundef 0)
  %46 = load i32, ptr %6, align 4
  %47 = add i32 %46, 8
  store i32 %47, ptr %6, align 4
  %48 = load i32, ptr %6, align 4
  call void @llvm.lifetime.end.p0(i64 8, ptr %7) #8
  ret i32 %48
}

; Function Attrs: null_pointer_is_valid sspstrong uwtable
define internal i32 @dissect_nano_tcp_server_message(ptr noundef %0, ptr noundef %1, ptr noundef %2, ptr noundef %3) #0 {
  %5 = alloca i32, align 4
  %6 = alloca ptr, align 8
  %7 = alloca ptr, align 8
  %8 = alloca ptr, align 8
  %9 = alloca ptr, align 8
  %10 = alloca i32, align 4
  %11 = alloca ptr, align 8
  %12 = alloca i32, align 4
  store ptr %0, ptr %6, align 8
  store ptr %1, ptr %7, align 8
  store ptr %2, ptr %8, align 8
  store ptr %3, ptr %9, align 8
  call void @llvm.lifetime.start.p0(i64 4, ptr %10) #8
  call void @llvm.lifetime.start.p0(i64 8, ptr %11) #8
  %13 = load ptr, ptr %9, align 8
  store ptr %13, ptr %11, align 8
  %14 = load ptr, ptr %11, align 8
  %15 = getelementptr inbounds nuw %struct.nano_session_state, ptr %14, i32 0, i32 0
  %16 = load i32, ptr %15, align 4
  %17 = icmp eq i32 %16, 6
  br i1 %17, label %23, label %18

18:                                               ; preds = %4
  %19 = load ptr, ptr %11, align 8
  %20 = getelementptr inbounds nuw %struct.nano_session_state, ptr %19, i32 0, i32 0
  %21 = load i32, ptr %20, align 4
  %22 = icmp eq i32 %21, 9
  br i1 %22, label %23, label %63

23:                                               ; preds = %18, %4
  %24 = load ptr, ptr %7, align 8
  %25 = getelementptr inbounds nuw %struct._packet_info, ptr %24, i32 0, i32 1
  %26 = load ptr, ptr %25, align 8
  %27 = load ptr, ptr %11, align 8
  %28 = getelementptr inbounds nuw %struct.nano_session_state, ptr %27, i32 0, i32 0
  %29 = load i32, ptr %28, align 4
  %30 = icmp eq i32 %29, 6
  %31 = select i1 %30, ptr @.str.132, ptr @.str.133
  call void @col_set_str(ptr noundef %26, i32 noundef 25, ptr noundef %31)
  %32 = load ptr, ptr %8, align 8
  %33 = load i32, ptr @hf_nano_bulk_pull_block_type, align 4
  %34 = load ptr, ptr %6, align 8
  %35 = call ptr @proto_tree_add_item_ret_uint(ptr noundef %32, i32 noundef %33, ptr noundef %34, i32 noundef 0, i32 noundef 1, i32 noundef 0, ptr noundef %10)
  %36 = load i32, ptr %10, align 4
  switch i32 %36, label %60 [
    i32 1, label %37
    i32 2, label %40
    i32 3, label %44
    i32 4, label %48
    i32 5, label %52
    i32 6, label %56
  ]

37:                                               ; preds = %23
  %38 = load ptr, ptr %11, align 8
  %39 = getelementptr inbounds nuw %struct.nano_session_state, ptr %38, i32 0, i32 0
  store i32 0, ptr %39, align 4
  br label %60

40:                                               ; preds = %23
  %41 = load ptr, ptr %6, align 8
  %42 = load ptr, ptr %8, align 8
  %43 = call i32 @dissect_nano_send_block(ptr noundef %41, ptr noundef %42, i32 noundef 1)
  br label %60

44:                                               ; preds = %23
  %45 = load ptr, ptr %6, align 8
  %46 = load ptr, ptr %8, align 8
  %47 = call i32 @dissect_nano_receive_block(ptr noundef %45, ptr noundef %46, i32 noundef 1)
  br label %60

48:                                               ; preds = %23
  %49 = load ptr, ptr %6, align 8
  %50 = load ptr, ptr %8, align 8
  %51 = call i32 @dissect_nano_open_block(ptr noundef %49, ptr noundef %50, i32 noundef 1)
  br label %60

52:                                               ; preds = %23
  %53 = load ptr, ptr %6, align 8
  %54 = load ptr, ptr %8, align 8
  %55 = call i32 @dissect_nano_change_block(ptr noundef %53, ptr noundef %54, i32 noundef 1)
  br label %60

56:                                               ; preds = %23
  %57 = load ptr, ptr %6, align 8
  %58 = load ptr, ptr %8, align 8
  %59 = call i32 @dissect_nano_state(ptr noundef %57, ptr noundef %58, i32 noundef 1)
  br label %60

60:                                               ; preds = %23, %56, %52, %48, %44, %40, %37
  %61 = load ptr, ptr %6, align 8
  %62 = call i32 @tvb_captured_length(ptr noundef %61)
  store i32 %62, ptr %5, align 4
  store i32 1, ptr %12, align 4
  br label %78

63:                                               ; preds = %18
  %64 = load ptr, ptr %11, align 8
  %65 = getelementptr inbounds nuw %struct.nano_session_state, ptr %64, i32 0, i32 0
  %66 = load i32, ptr %65, align 4
  %67 = icmp eq i32 %66, 8
  br i1 %67, label %68, label %75

68:                                               ; preds = %63
  %69 = load ptr, ptr %7, align 8
  %70 = getelementptr inbounds nuw %struct._packet_info, ptr %69, i32 0, i32 1
  %71 = load ptr, ptr %70, align 8
  call void @col_set_str(ptr noundef %71, i32 noundef 25, ptr noundef @.str.134)
  %72 = load ptr, ptr %6, align 8
  %73 = load ptr, ptr %8, align 8
  %74 = call i32 @dissect_nano_frontier(ptr noundef %72, ptr noundef %73, i32 noundef 0)
  br label %75

75:                                               ; preds = %68, %63
  %76 = load ptr, ptr %6, align 8
  %77 = call i32 @tvb_captured_length(ptr noundef %76)
  store i32 %77, ptr %5, align 4
  store i32 1, ptr %12, align 4
  br label %78

78:                                               ; preds = %75, %60
  call void @llvm.lifetime.end.p0(i64 8, ptr %11) #8
  call void @llvm.lifetime.end.p0(i64 4, ptr %10) #8
  %79 = load i32, ptr %5, align 4
  ret i32 %79
}