; Function Attrs: null_pointer_is_valid sspstrong uwtable
define internal i32 @dissect_nano_tcp_server_message(ptr noundef %0, ptr noundef readonly captures(none) %1, ptr noundef %2, ptr noundef captures(none) %3) #0 {
  %5 = alloca i32, align 4
  call void @llvm.lifetime.start.p0(i64 4, ptr nonnull %5) #5
  %6 = load i32, ptr %3, align 4
  switch i32 %6, label %76 [
    i32 6, label %7
    i32 9, label %7
    i32 8, label %67
  ]

7:                                                ; preds = %4, %4
  %8 = getelementptr inbounds nuw i8, ptr %1, i64 8
  %9 = load ptr, ptr %8, align 8
  %10 = icmp eq i32 %6, 6
  %11 = select i1 %10, ptr @.str.132, ptr @.str.133
  tail call void @col_set_str(ptr noundef %9, i32 noundef 25, ptr noundef nonnull %11)
  %12 = load i32, ptr @hf_nano_bulk_pull_block_type, align 4
  %13 = call ptr @proto_tree_add_item_ret_uint(ptr noundef %2, i32 noundef %12, ptr noundef %0, i32 noundef 0, i32 noundef 1, i32 noundef 0, ptr noundef nonnull %5)
  %14 = load i32, ptr %5, align 4
  switch i32 %14, label %65 [
    i32 1, label %15
    i32 2, label %16
    i32 3, label %29
    i32 4, label %40
    i32 5, label %53
    i32 6, label %64
  ]

15:                                               ; preds = %7
  store i32 0, ptr %3, align 4
  br label %65

16:                                               ; preds = %7
  %17 = load i32, ptr @ett_nano_block, align 4
  %18 = call ptr @proto_tree_add_subtree(ptr noundef %2, ptr noundef %0, i32 noundef 1, i32 noundef 152, i32 noundef %17, ptr noundef null, ptr noundef nonnull @.str.121)
  %19 = load i32, ptr @hf_nano_block_hash_previous, align 4
  %20 = call ptr @proto_tree_add_item(ptr noundef %18, i32 noundef %19, ptr noundef %0, i32 noundef 1, i32 noundef 32, i32 noundef 0)
  %21 = load i32, ptr @hf_nano_block_destination_account, align 4
  %22 = call ptr @proto_tree_add_item(ptr noundef %18, i32 noundef %21, ptr noundef %0, i32 noundef 33, i32 noundef 32, i32 noundef 0)
  %23 = load i32, ptr @hf_nano_block_balance, align 4
  %24 = call ptr @proto_tree_add_item(ptr noundef %18, i32 noundef %23, ptr noundef %0, i32 noundef 65, i32 noundef 16, i32 noundef 0)
  %25 = load i32, ptr @hf_nano_block_signature, align 4
  %26 = call ptr @proto_tree_add_item(ptr noundef %18, i32 noundef %25, ptr noundef %0, i32 noundef 81, i32 noundef 64, i32 noundef 0)
  %27 = load i32, ptr @hf_nano_block_work, align 4
  %28 = call ptr @proto_tree_add_item(ptr noundef %18, i32 noundef %27, ptr noundef %0, i32 noundef 145, i32 noundef 8, i32 noundef 0)
  br label %65

29:                                               ; preds = %7
  %30 = load i32, ptr @ett_nano_block, align 4
  %31 = call ptr @proto_tree_add_subtree(ptr noundef %2, ptr noundef %0, i32 noundef 1, i32 noundef 136, i32 noundef %30, ptr noundef null, ptr noundef nonnull @.str.120)
  %32 = load i32, ptr @hf_nano_block_hash_previous, align 4
  %33 = call ptr @proto_tree_add_item(ptr noundef %31, i32 noundef %32, ptr noundef %0, i32 noundef 1, i32 noundef 32, i32 noundef 0)
  %34 = load i32, ptr @hf_nano_block_hash_source, align 4
  %35 = call ptr @proto_tree_add_item(ptr noundef %31, i32 noundef %34, ptr noundef %0, i32 noundef 33, i32 noundef 32, i32 noundef 0)
  %36 = load i32, ptr @hf_nano_block_signature, align 4
  %37 = call ptr @proto_tree_add_item(ptr noundef %31, i32 noundef %36, ptr noundef %0, i32 noundef 65, i32 noundef 64, i32 noundef 0)
  %38 = load i32, ptr @hf_nano_block_work, align 4
  %39 = call ptr @proto_tree_add_item(ptr noundef %31, i32 noundef %38, ptr noundef %0, i32 noundef 129, i32 noundef 8, i32 noundef 0)
  br label %65

40:                                               ; preds = %7
  %41 = load i32, ptr @ett_nano_block, align 4
  %42 = call ptr @proto_tree_add_subtree(ptr noundef %2, ptr noundef %0, i32 noundef 1, i32 noundef 168, i32 noundef %41, ptr noundef null, ptr noundef nonnull @.str.122)
  %43 = load i32, ptr @hf_nano_block_hash_source, align 4
  %44 = call ptr @proto_tree_add_item(ptr noundef %42, i32 noundef %43, ptr noundef %0, i32 noundef 1, i32 noundef 32, i32 noundef 0)
  %45 = load i32, ptr @hf_nano_block_representative_account, align 4
  %46 = call ptr @proto_tree_add_item(ptr noundef %42, i32 noundef %45, ptr noundef %0, i32 noundef 33, i32 noundef 32, i32 noundef 0)
  %47 = load i32, ptr @hf_nano_block_account, align 4
  %48 = call ptr @proto_tree_add_item(ptr noundef %42, i32 noundef %47, ptr noundef %0, i32 noundef 65, i32 noundef 32, i32 noundef 0)
  %49 = load i32, ptr @hf_nano_block_signature, align 4
  %50 = call ptr @proto_tree_add_item(ptr noundef %42, i32 noundef %49, ptr noundef %0, i32 noundef 97, i32 noundef 64, i32 noundef 0)
  %51 = load i32, ptr @hf_nano_block_work, align 4
  %52 = call ptr @proto_tree_add_item(ptr noundef %42, i32 noundef %51, ptr noundef %0, i32 noundef 161, i32 noundef 8, i32 noundef 0)
  br label %65

53:                                               ; preds = %7
  %54 = load i32, ptr @ett_nano_block, align 4
  %55 = call ptr @proto_tree_add_subtree(ptr noundef %2, ptr noundef %0, i32 noundef 1, i32 noundef 136, i32 noundef %54, ptr noundef null, ptr noundef nonnull @.str.123)
  %56 = load i32, ptr @hf_nano_block_hash_previous, align 4
  %57 = call ptr @proto_tree_add_item(ptr noundef %55, i32 noundef %56, ptr noundef %0, i32 noundef 1, i32 noundef 32, i32 noundef 0)
  %58 = load i32, ptr @hf_nano_block_representative_account, align 4
  %59 = call ptr @proto_tree_add_item(ptr noundef %55, i32 noundef %58, ptr noundef %0, i32 noundef 33, i32 noundef 32, i32 noundef 0)
  %60 = load i32, ptr @hf_nano_block_signature, align 4
  %61 = call ptr @proto_tree_add_item(ptr noundef %55, i32 noundef %60, ptr noundef %0, i32 noundef 65, i32 noundef 64, i32 noundef 0)
  %62 = load i32, ptr @hf_nano_block_work, align 4
  %63 = call ptr @proto_tree_add_item(ptr noundef %55, i32 noundef %62, ptr noundef %0, i32 noundef 129, i32 noundef 8, i32 noundef 0)
  br label %65

64:                                               ; preds = %7
  call fastcc void @dissect_nano_state(ptr noundef %0, ptr noundef %2, i32 noundef 1)
  br label %65

65:                                               ; preds = %64, %53, %40, %29, %16, %15, %7
  %66 = call i32 @tvb_captured_length(ptr noundef %0)
  br label %78

67:                                               ; preds = %4
  %68 = getelementptr inbounds nuw i8, ptr %1, i64 8
  %69 = load ptr, ptr %68, align 8
  tail call void @col_set_str(ptr noundef %69, i32 noundef 25, ptr noundef nonnull @.str.134)
  %70 = load i32, ptr @ett_nano_frontier, align 4
  %71 = tail call ptr @proto_tree_add_subtree(ptr noundef %2, ptr noundef %0, i32 noundef 0, i32 noundef 64, i32 noundef %70, ptr noundef null, ptr noundef nonnull @.str.135)
  %72 = load i32, ptr @hf_nano_frontier_account, align 4
  %73 = tail call ptr @proto_tree_add_item(ptr noundef %71, i32 noundef %72, ptr noundef %0, i32 noundef 0, i32 noundef 32, i32 noundef 0)
  %74 = load i32, ptr @hf_nano_frontier_head_hash, align 4
  %75 = tail call ptr @proto_tree_add_item(ptr noundef %71, i32 noundef %74, ptr noundef %0, i32 noundef 32, i32 noundef 32, i32 noundef 0)
  br label %76

76:                                               ; preds = %4, %67
  %77 = tail call i32 @tvb_captured_length(ptr noundef %0)
  br label %78

78:                                               ; preds = %76, %65
  %.0 = phi i32 [ %66, %65 ], [ %77, %76 ]
  call void @llvm.lifetime.end.p0(i64 4, ptr nonnull %5) #5
  ret i32 %.0
}